target datalayout = "e-m:e-p270:32:32-p271:32:32-p272:64:64-i64:64-f80:128-n8:16:32:64-S128"
target triple = "x86_64-pc-linux-gnu"

@.str = private unnamed_addr constant [3 x i8] c"%d\00", align 1
@.str.1 = private unnamed_addr constant [3 x i8] c"NO\00", align 1
@.str.2 = private unnamed_addr constant [4 x i8] c"%d\0A\00", align 1
@.str.3 = private unnamed_addr constant [3 x i8] c"%c\00", align 1
@.str.4 = private unnamed_addr constant [2 x i8] c"\0A\00", align 1

; Function Attrs: noinline nounwind uwtable
define dso_local void @main() #0 {
  %1 = alloca i32, align 4
  %2 = alloca i32, align 4
  %3 = alloca i32, align 4
  %4 = alloca i32, align 4
  %5 = alloca i32, align 4
  %6 = alloca i32, align 4
  %7 = alloca i32, align 4
  %8 = alloca [501 x i32], align 16
  %9 = alloca [501 x i8], align 16
  store i32 0, i32* %4, align 4
  %10 = bitcast [501 x i32]* %8 to i8*
  call void @llvm.memset.p0i8.i64(i8* align 16 %10, i8 0, i64 2004, i1 false)
  %11 = bitcast [501 x i8]* %9 to i8*
  call void @llvm.memset.p0i8.i64(i8* align 16 %11, i8 0, i64 501, i1 false)
  %12 = call i32 (i8*, ...) @__isoc99_scanf(i8* getelementptr inbounds ([3 x i8], [3 x i8]* @.str, i64 0, i64 0), i32* %7)
  %13 = call i32 @getchar()
  %14 = getelementptr inbounds [501 x i8], [501 x i8]* %9, i64 0, i64 0
  %15 = call i32 (i8*, ...) bitcast (i32 (...)* @gets to i32 (i8*, ...)*)(i8* %14)
  %16 = getelementptr inbounds [501 x i8], [501 x i8]* %9, i64 0, i64 0
  %17 = call i64 @strlen(i8* %16) #4
  %18 = trunc i64 %17 to i32
  store i32 %18, i32* %6, align 4
  store i32 0, i32* %1, align 4
  br label %19

19:                                               ; preds = %72, %0
  %20 = load i32, i32* %1, align 4
  %21 = load i32, i32* %6, align 4
  %22 = icmp slt i32 %20, %21
  br i1 %22, label %23, label %75

23:                                               ; preds = %19
  %24 = load i32, i32* %1, align 4
  store i32 %24, i32* %3, align 4
  br label %25

25:                                               ; preds = %68, %23
  %26 = load i32, i32* %3, align 4
  %27 = load i32, i32* %6, align 4
  %28 = load i32, i32* %7, align 4
  %29 = sub nsw i32 %27, %28
  %30 = add nsw i32 %29, 1
  %31 = icmp slt i32 %26, %30
  br i1 %31, label %32, label %71

32:                                               ; preds = %25
  store i32 0, i32* %5, align 4
  store i32 0, i32* %2, align 4
  br label %33

33:                                               ; preds = %55, %32
  %34 = load i32, i32* %2, align 4
  %35 = load i32, i32* %7, align 4
  %36 = icmp slt i32 %34, %35
  br i1 %36, label %37, label %58

37:                                               ; preds = %33
  %38 = load i32, i32* %1, align 4
  %39 = load i32, i32* %2, align 4
  %40 = add nsw i32 %38, %39
  %41 = sext i32 %40 to i64
  %42 = getelementptr inbounds [501 x i8], [501 x i8]* %9, i64 0, i64 %41
  %43 = load i8, i8* %42, align 1
  %44 = sext i8 %43 to i32
  %45 = load i32, i32* %3, align 4
  %46 = load i32, i32* %2, align 4
  %47 = add nsw i32 %45, %46
  %48 = sext i32 %47 to i64
  %49 = getelementptr inbounds [501 x i8], [501 x i8]* %9, i64 0, i64 %48
  %50 = load i8, i8* %49, align 1
  %51 = sext i8 %50 to i32
  %52 = icmp ne i32 %44, %51
  br i1 %52, label %53, label %54

53:                                               ; preds = %37
  store i32 1, i32* %5, align 4
  br label %54

54:                                               ; preds = %53, %37
  br label %55

55:                                               ; preds = %54
  %56 = load i32, i32* %2, align 4
  %57 = add nsw i32 %56, 1
  store i32 %57, i32* %2, align 4
  br label %33

58:                                               ; preds = %33
  %59 = load i32, i32* %5, align 4
  %60 = icmp ne i32 %59, 0
  br i1 %60, label %67, label %61

61:                                               ; preds = %58
  %62 = load i32, i32* %1, align 4
  %63 = sext i32 %62 to i64
  %64 = getelementptr inbounds [501 x i32], [501 x i32]* %8, i64 0, i64 %63
  %65 = load i32, i32* %64, align 4
  %66 = add nsw i32 %65, 1
  store i32 %66, i32* %64, align 4
  br label %67

67:                                               ; preds = %61, %58
  br label %68

68:                                               ; preds = %67
  %69 = load i32, i32* %3, align 4
  %70 = add nsw i32 %69, 1
  store i32 %70, i32* %3, align 4
  br label %25

71:                                               ; preds = %25
  br label %72

72:                                               ; preds = %71
  %73 = load i32, i32* %1, align 4
  %74 = add nsw i32 %73, 1
  store i32 %74, i32* %1, align 4
  br label %19

75:                                               ; preds = %19
  store i32 0, i32* %1, align 4
  br label %76

76:                                               ; preds = %96, %75
  %77 = load i32, i32* %1, align 4
  %78 = load i32, i32* %6, align 4
  %79 = load i32, i32* %7, align 4
  %80 = sub nsw i32 %78, %79
  %81 = add nsw i32 %80, 1
  %82 = icmp slt i32 %77, %81
  br i1 %82, label %83, label %99

83:                                               ; preds = %76
  %84 = load i32, i32* %1, align 4
  %85 = sext i32 %84 to i64
  %86 = getelementptr inbounds [501 x i32], [501 x i32]* %8, i64 0, i64 %85
  %87 = load i32, i32* %86, align 4
  %88 = load i32, i32* %4, align 4
  %89 = icmp sgt i32 %87, %88
  br i1 %89, label %90, label %95

90:                                               ; preds = %83
  %91 = load i32, i32* %1, align 4
  %92 = sext i32 %91 to i64
  %93 = getelementptr inbounds [501 x i32], [501 x i32]* %8, i64 0, i64 %92
  %94 = load i32, i32* %93, align 4
  store i32 %94, i32* %4, align 4
  br label %95

95:                                               ; preds = %90, %83
  br label %96

96:                                               ; preds = %95
  %97 = load i32, i32* %1, align 4
  %98 = add nsw i32 %97, 1
  store i32 %98, i32* %1, align 4
  br label %76

99:                                               ; preds = %76
  store i32 0, i32* %5, align 4
  store i32 0, i32* %1, align 4
  br label %100

100:                                              ; preds = %115, %99
  %101 = load i32, i32* %1, align 4
  %102 = load i32, i32* %6, align 4
  %103 = load i32, i32* %7, align 4
  %104 = sub nsw i32 %102, %103
  %105 = add nsw i32 %104, 1
  %106 = icmp slt i32 %101, %105
  br i1 %106, label %107, label %118

107:                                              ; preds = %100
  %108 = load i32, i32* %1, align 4
  %109 = sext i32 %108 to i64
  %110 = getelementptr inbounds [501 x i32], [501 x i32]* %8, i64 0, i64 %109
  %111 = load i32, i32* %110, align 4
  %112 = icmp sgt i32 %111, 1
  br i1 %112, label %113, label %114

113:                                              ; preds = %107
  store i32 1, i32* %5, align 4
  br label %118

114:                                              ; preds = %107
  br label %115

115:                                              ; preds = %114
  %116 = load i32, i32* %1, align 4
  %117 = add nsw i32 %116, 1
  store i32 %117, i32* %1, align 4
  br label %100

118:                                              ; preds = %113, %100
  %119 = load i32, i32* %5, align 4
  %120 = icmp ne i32 %119, 0
  br i1 %120, label %123, label %121

121:                                              ; preds = %118
  %122 = call i32 (i8*, ...) @printf(i8* getelementptr inbounds ([3 x i8], [3 x i8]* @.str.1, i64 0, i64 0))
  br label %163

123:                                              ; preds = %118
  %124 = load i32, i32* %4, align 4
  %125 = call i32 (i8*, ...) @printf(i8* getelementptr inbounds ([4 x i8], [4 x i8]* @.str.2, i64 0, i64 0), i32 %124)
  store i32 0, i32* %1, align 4
  br label %126

126:                                              ; preds = %160, %123
  %127 = load i32, i32* %1, align 4
  %128 = load i32, i32* %6, align 4
  %129 = load i32, i32* %7, align 4
  %130 = sub nsw i32 %128, %129
  %131 = add nsw i32 %130, 1
  %132 = icmp slt i32 %127, %131
  br i1 %132, label %133, label %163

133:                                              ; preds = %126
  %134 = load i32, i32* %1, align 4
  %135 = sext i32 %134 to i64
  %136 = getelementptr inbounds [501 x i32], [501 x i32]* %8, i64 0, i64 %135
  %137 = load i32, i32* %136, align 4
  %138 = load i32, i32* %4, align 4
  %139 = icmp eq i32 %137, %138
  br i1 %139, label %140, label %159

140:                                              ; preds = %133
  store i32 0, i32* %2, align 4
  br label %141

141:                                              ; preds = %154, %140
  %142 = load i32, i32* %2, align 4
  %143 = load i32, i32* %7, align 4
  %144 = icmp slt i32 %142, %143
  br i1 %144, label %145, label %157

145:                                              ; preds = %141
  %146 = load i32, i32* %1, align 4
  %147 = load i32, i32* %2, align 4
  %148 = add nsw i32 %146, %147
  %149 = sext i32 %148 to i64
  %150 = getelementptr inbounds [501 x i8], [501 x i8]* %9, i64 0, i64 %149
  %151 = load i8, i8* %150, align 1
  %152 = sext i8 %151 to i32
  %153 = call i32 (i8*, ...) @printf(i8* getelementptr inbounds ([3 x i8], [3 x i8]* @.str.3, i64 0, i64 0), i32 %152)
  br label %154

154:                                              ; preds = %145
  %155 = load i32, i32* %2, align 4
  %156 = add nsw i32 %155, 1
  store i32 %156, i32* %2, align 4
  br label %141

157:                                              ; preds = %141
  %158 = call i32 (i8*, ...) @printf(i8* getelementptr inbounds ([2 x i8], [2 x i8]* @.str.4, i64 0, i64 0))
  br label %159

159:                                              ; preds = %157, %133
  br label %160

160:                                              ; preds = %159
  %161 = load i32, i32* %1, align 4
  %162 = add nsw i32 %161, 1
  store i32 %162, i32* %1, align 4
  br label %126

163:                                              ; preds = %121, %126
  ret void
}